; Function Attrs: mustprogress uwtable
define hidden void @_Z23exec_Z3_mk_exists_constR11z3_replayer(ptr noundef nonnull align 8 dereferenceable(8) %0) #0 {
  %2 = tail call noundef ptr @_ZNK11z3_replayer7get_objEj(ptr noundef nonnull align 8 dereferenceable(8) %0, i32 noundef 0)
  %3 = tail call noundef i32 @_ZNK11z3_replayer8get_uintEj(ptr noundef nonnull align 8 dereferenceable(8) %0, i32 noundef 1)
  %4 = tail call noundef i32 @_ZNK11z3_replayer8get_uintEj(ptr noundef nonnull align 8 dereferenceable(8) %0, i32 noundef 2)
  %5 = tail call noundef ptr @_ZNK11z3_replayer13get_obj_arrayEj(ptr noundef nonnull align 8 dereferenceable(8) %0, i32 noundef 3)
  %6 = tail call noundef i32 @_ZNK11z3_replayer8get_uintEj(ptr noundef nonnull align 8 dereferenceable(8) %0, i32 noundef 4)
  %7 = tail call noundef ptr @_ZNK11z3_replayer13get_obj_arrayEj(ptr noundef nonnull align 8 dereferenceable(8) %0, i32 noundef 5)
  %8 = tail call noundef ptr @_ZNK11z3_replayer7get_objEj(ptr noundef nonnull align 8 dereferenceable(8) %0, i32 noundef 6)
  %9 = tail call ptr @Z3_mk_exists_const(ptr noundef %2, i32 noundef %3, i32 noundef %4, ptr noundef %5, i32 noundef %6, ptr noundef %7, ptr noundef %8)
  tail call void @_ZN11z3_replayer12store_resultEPv(ptr noundef nonnull align 8 dereferenceable(8) %0, ptr noundef %9)
  ret void
}